; Function Attrs: nounwind uwtable
define internal range(i32 -1163346256, 1) i32 @dcstr_read_header(ptr noundef %0) #1 {
  %2 = tail call ptr @avformat_new_stream(ptr noundef %0, ptr noundef null) #4
  %.not = icmp eq ptr %2, null
  br i1 %.not, label %57, label %3

3:                                                ; preds = %1
  %4 = getelementptr inbounds nuw i8, ptr %2, i64 16
  %5 = load ptr, ptr %4, align 8, !tbaa !12
  store i32 1, ptr %5, align 8, !tbaa !22
  %6 = getelementptr inbounds nuw i8, ptr %0, i64 32
  %7 = load ptr, ptr %6, align 8, !tbaa !25
  %8 = tail call i32 @avio_rl32(ptr noundef %7) #4
  %9 = load ptr, ptr %4, align 8, !tbaa !12
  %10 = getelementptr inbounds nuw i8, ptr %9, i64 132
  store i32 %8, ptr %10, align 4, !tbaa !37
  %11 = load ptr, ptr %6, align 8, !tbaa !25
  %12 = tail call i32 @avio_rl32(ptr noundef %11) #4
  %13 = load ptr, ptr %4, align 8, !tbaa !12
  %14 = getelementptr inbounds nuw i8, ptr %13, i64 152
  store i32 %12, ptr %14, align 8, !tbaa !38
  %15 = icmp slt i32 %12, 1
  br i1 %15, label %57, label %16

16:                                               ; preds = %3
  %17 = load ptr, ptr %6, align 8, !tbaa !25
  %18 = tail call i32 @avio_rl32(ptr noundef %17) #4
  %19 = load ptr, ptr %6, align 8, !tbaa !25
  %20 = tail call i32 @avio_rl32(ptr noundef %19) #4
  %21 = load ptr, ptr %6, align 8, !tbaa !25
  %22 = tail call i64 @avio_skip(ptr noundef %21, i64 noundef 4) #4
  %23 = load ptr, ptr %6, align 8, !tbaa !25
  %24 = tail call i32 @avio_rl32(ptr noundef %23) #4
  %25 = zext i32 %24 to i64
  %26 = getelementptr inbounds nuw i8, ptr %2, i64 48
  store i64 %25, ptr %26, align 8, !tbaa !39
  %27 = load ptr, ptr %6, align 8, !tbaa !25
  %28 = tail call i32 @avio_rl32(ptr noundef %27) #4
  %29 = load ptr, ptr %4, align 8, !tbaa !12
  %30 = getelementptr inbounds nuw i8, ptr %29, i64 132
  %31 = load i32, ptr %30, align 4, !tbaa !37
  %32 = icmp slt i32 %31, 1
  %33 = icmp slt i32 %28, 1
  %or.cond = select i1 %32, i1 true, i1 %33
  br i1 %or.cond, label %37, label %34

34:                                               ; preds = %16
  %35 = udiv i32 2147483647, %31
  %36 = icmp samesign ugt i32 %28, %35
  br i1 %36, label %37, label %38

37:                                               ; preds = %34, %16
  tail call void (ptr, i32, ptr, ...) @av_log(ptr noundef nonnull %0, i32 noundef 16, ptr noundef nonnull @.str.4, i32 noundef %31, i32 noundef %28) #4
  br label %57

38:                                               ; preds = %34
  %39 = mul nuw nsw i32 %31, %28
  store i32 %39, ptr %30, align 4, !tbaa !37
  %.not43 = icmp eq i32 %20, 0
  br i1 %.not43, label %57, label %40

40:                                               ; preds = %38
  %41 = udiv i32 2147483647, %39
  %42 = icmp ugt i32 %20, %41
  br i1 %42, label %57, label %43

43:                                               ; preds = %40
  %44 = mul i32 %39, %20
  %45 = getelementptr inbounds nuw i8, ptr %29, i64 156
  store i32 %44, ptr %45, align 4, !tbaa !40
  switch i32 %18, label %47 [
    i32 4, label %48
    i32 16, label %46
  ]

46:                                               ; preds = %43
  br label %48

47:                                               ; preds = %43
  tail call void (ptr, ptr, ...) @avpriv_request_sample(ptr noundef nonnull %0, ptr noundef nonnull @.str.5, i32 noundef %18) #4
  br label %57

48:                                               ; preds = %43, %46
  %.sink = phi i32 [ 65554, %46 ], [ 69670, %43 ]
  %49 = getelementptr inbounds nuw i8, ptr %29, i64 4
  store i32 %.sink, ptr %49, align 4, !tbaa !41
  %50 = load ptr, ptr %6, align 8, !tbaa !25
  %51 = tail call i64 @avio_seek(ptr noundef %50, i64 noundef 0, i32 noundef 1) #4
  %52 = sub nsw i64 2048, %51
  %53 = tail call i64 @avio_skip(ptr noundef %50, i64 noundef %52) #4
  %54 = load ptr, ptr %4, align 8, !tbaa !12
  %55 = getelementptr inbounds nuw i8, ptr %54, i64 152
  %56 = load i32, ptr %55, align 8, !tbaa !38
  tail call void @avpriv_set_pts_info(ptr noundef nonnull %2, i32 noundef 64, i32 noundef 1, i32 noundef %56) #4
  br label %57

57:                                               ; preds = %38, %40, %3, %1, %48, %47, %37
  %.0 = phi i32 [ -1094995529, %37 ], [ -1163346256, %47 ], [ 0, %48 ], [ -12, %1 ], [ -1094995529, %3 ], [ -1094995529, %40 ], [ -1094995529, %38 ]
  ret i32 %.0
}